target datalayout = "e-m:e-p270:32:32-p271:32:32-p272:64:64-i64:64-i128:128-f80:128-n8:16:32:64-S128"
target triple = "x86_64-pc-linux-gnu"

%struct._zend_executor_globals = type { %struct._zval_struct, %struct._zval_struct, [32 x ptr], ptr, ptr, %struct._zend_array, %struct._zend_array, ptr, i32, i8, %struct._zval_struct, i32, ptr, ptr, ptr, ptr, ptr, ptr, i64, ptr, ptr, i32, ptr, i32, i64, i32, i32, i32, i8, i8, %struct.zend_atomic_bool_s, %struct.zend_atomic_bool_s, ptr, i64, ptr, ptr, %struct._zend_array, %struct._zend_array, i32, i8, %struct._zval_struct, %struct._zval_struct, %struct._zend_stack, %struct._zend_stack, %struct._zend_stack, ptr, i32, i32, i64, ptr, ptr, ptr, %struct._zend_objects_store, %struct._zend_lazy_objects_store, ptr, ptr, ptr, [3 x %struct._zend_op], ptr, i8, i8, i64, i32, i32, ptr, [16 x %struct._HashTableIterator], ptr, %union._zend_function, %struct._zend_op, %struct._zend_array, i64, %struct.zend_get_gc_buffer, ptr, ptr, ptr, i64, i8, i32, ptr, ptr, i64, %struct._zend_call_stack, i64, i64, %struct._zend_strtod_state, [6 x ptr] }
%struct.zend_atomic_bool_s = type { i8 }
%struct._zval_struct = type { %union._zend_value, %union.anon, %union.anon.2 }
%union._zend_value = type { i64 }
%union.anon = type { i32 }
%union.anon.2 = type { i32 }
%struct._zend_stack = type { i32, i32, i32, ptr }
%struct._zend_objects_store = type { ptr, i32, i32, i32 }
%struct._zend_lazy_objects_store = type { %struct._zend_array }
%struct._HashTableIterator = type { ptr, i32, i32 }
%union._zend_function = type { %struct._zend_op_array }
%struct._zend_op_array = type { i8, [3 x i8], i32, ptr, ptr, ptr, i32, i32, ptr, ptr, ptr, ptr, i32, ptr, i32, i32, i32, ptr, ptr, ptr, ptr, ptr, i32, i32, ptr, ptr, ptr, i32, i32, i32, i32, ptr, ptr, [6 x ptr] }
%struct._zend_op = type { ptr, %union._znode_op, %union._znode_op, %union._znode_op, i32, i32, i8, i8, i8, i8 }
%union._znode_op = type { i32 }
%struct._zend_array = type { %struct._zend_refcounted_h, %union.anon.4, i32, %union.anon.6, i32, i32, i32, i32, i64, ptr }
%struct._zend_refcounted_h = type { i32, %union.anon.3 }
%union.anon.3 = type { i32 }
%union.anon.4 = type { i32 }
%union.anon.6 = type { ptr }
%struct.zend_get_gc_buffer = type { ptr, ptr, ptr }
%struct._zend_call_stack = type { ptr, i64 }
%struct._zend_strtod_state = type { [8 x ptr], ptr, ptr }
%struct._zend_fcall_info_cache = type { ptr, ptr, ptr, ptr, ptr }
%struct._zend_llist = type { ptr, ptr, i64, i64, ptr, i8, ptr }
%struct._zend_execute_data = type { ptr, ptr, ptr, ptr, %struct._zval_struct, ptr, ptr, ptr, ptr }
%struct._php_sqlite3_db_object = type { i8, i8, ptr, ptr, ptr, %struct._zend_fcall_info_cache, %struct._zend_llist, %struct._zend_object }
%struct._zend_object = type { %struct._zend_refcounted_h, i32, i32, ptr, ptr, ptr, [1 x %struct._zval_struct] }

@executor_globals = external global %struct._zend_executor_globals, align 8
@.str.8 = private unnamed_addr constant [75 x i8] c"The SQLite3 object has not been correctly initialised or is already closed\00", align 1

; Function Attrs: inlinehint nounwind uwtable
define internal ptr @php_sqlite3_db_from_obj(ptr noundef %0) #2 {
  %2 = alloca ptr, align 8
  store ptr %0, ptr %2, align 8, !tbaa !67
  %3 = load ptr, ptr %2, align 8, !tbaa !67
  %4 = getelementptr inbounds i8, ptr %3, i64 -128
  ret ptr %4
}

; Function Attrs: nounwind uwtable
define hidden void @zim_SQLite3_lastErrorCode(ptr noundef %0, ptr noundef %1) #0 {
  %3 = alloca ptr, align 8
  %4 = alloca ptr, align 8
  %5 = alloca ptr, align 8
  %6 = alloca ptr, align 8
  %7 = alloca i32, align 4
  %8 = alloca ptr, align 8
  %9 = alloca ptr, align 8
  store ptr %0, ptr %3, align 8, !tbaa !4
  store ptr %1, ptr %4, align 8, !tbaa !9
  call void @llvm.lifetime.start.p0(i64 8, ptr %5) #15
  call void @llvm.lifetime.start.p0(i64 8, ptr %6) #15
  %10 = load ptr, ptr %3, align 8, !tbaa !4
  %11 = getelementptr inbounds nuw %struct._zend_execute_data, ptr %10, i32 0, i32 4
  store ptr %11, ptr %6, align 8, !tbaa !9
  %12 = load ptr, ptr %6, align 8, !tbaa !9
  %13 = getelementptr inbounds nuw %struct._zval_struct, ptr %12, i32 0, i32 0
  %14 = load ptr, ptr %13, align 8, !tbaa !13
  %15 = call ptr @php_sqlite3_db_from_obj(ptr noundef %14)
  store ptr %15, ptr %5, align 8, !tbaa !14
  %16 = load ptr, ptr %3, align 8, !tbaa !4
  %17 = getelementptr inbounds nuw %struct._zend_execute_data, ptr %16, i32 0, i32 4
  %18 = getelementptr inbounds nuw %struct._zval_struct, ptr %17, i32 0, i32 2
  %19 = load i32, ptr %18, align 4, !tbaa !13
  %20 = icmp eq i32 %19, 0
  %21 = xor i1 %20, true
  %22 = xor i1 %21, true
  %23 = zext i1 %22 to i32
  %24 = sext i32 %23 to i64
  %25 = call i64 @llvm.expect.i64(i64 %24, i64 1)
  %26 = icmp ne i64 %25, 0
  br i1 %26, label %27, label %28

27:                                               ; preds = %2
  br label %29

28:                                               ; preds = %2
  call void @zend_wrong_parameters_none_error()
  br label %29

29:                                               ; preds = %28, %27
  %30 = phi i32 [ 0, %27 ], [ -1, %28 ]
  %31 = icmp eq i32 %30, -1
  br i1 %31, label %32, label %38

32:                                               ; preds = %29
  br label %33

33:                                               ; preds = %32
  %34 = load ptr, ptr getelementptr inbounds nuw (%struct._zend_executor_globals, ptr @executor_globals, i32 0, i32 54), align 8, !tbaa !16
  %35 = icmp ne ptr %34, null
  call void @llvm.assume(i1 %35)
  store i32 1, ptr %7, align 4
  br label %87

36:                                               ; No predecessors!
  br label %37

37:                                               ; preds = %36
  br label %38

38:                                               ; preds = %37, %29
  %39 = load ptr, ptr %5, align 8, !tbaa !14
  %40 = icmp ne ptr %39, null
  br i1 %40, label %41, label %46

41:                                               ; preds = %38
  %42 = load ptr, ptr %5, align 8, !tbaa !14
  %43 = getelementptr inbounds nuw %struct._php_sqlite3_db_object, ptr %42, i32 0, i32 2
  %44 = load ptr, ptr %43, align 8, !tbaa !64
  %45 = icmp ne ptr %44, null
  br i1 %45, label %52, label %46

46:                                               ; preds = %41, %38
  call void (ptr, ptr, ...) @zend_throw_error(ptr noundef null, ptr noundef @.str.8)
  br label %47

47:                                               ; preds = %46
  %48 = load ptr, ptr getelementptr inbounds nuw (%struct._zend_executor_globals, ptr @executor_globals, i32 0, i32 54), align 8, !tbaa !16
  %49 = icmp ne ptr %48, null
  call void @llvm.assume(i1 %49)
  store i32 1, ptr %7, align 4
  br label %87

50:                                               ; No predecessors!
  br label %51

51:                                               ; preds = %50
  br label %52

52:                                               ; preds = %51, %41
  %53 = load ptr, ptr %5, align 8, !tbaa !14
  %54 = getelementptr inbounds nuw %struct._php_sqlite3_db_object, ptr %53, i32 0, i32 0
  %55 = load i8, ptr %54, align 8, !tbaa !48, !range !59, !noundef !60
  %56 = trunc i8 %55 to i1
  br i1 %56, label %57, label %74

57:                                               ; preds = %52
  br label %58

58:                                               ; preds = %57
  br label %59

59:                                               ; preds = %58
  call void @llvm.lifetime.start.p0(i64 8, ptr %8) #15
  %60 = load ptr, ptr %4, align 8, !tbaa !9
  store ptr %60, ptr %8, align 8, !tbaa !9
  %61 = load ptr, ptr %5, align 8, !tbaa !14
  %62 = getelementptr inbounds nuw %struct._php_sqlite3_db_object, ptr %61, i32 0, i32 2
  %63 = load ptr, ptr %62, align 8, !tbaa !64
  %64 = call i32 @sqlite3_errcode(ptr noundef %63)
  %65 = sext i32 %64 to i64
  %66 = load ptr, ptr %8, align 8, !tbaa !9
  %67 = getelementptr inbounds nuw %struct._zval_struct, ptr %66, i32 0, i32 0
  store i64 %65, ptr %67, align 8, !tbaa !13
  %68 = load ptr, ptr %8, align 8, !tbaa !9
  %69 = getelementptr inbounds nuw %struct._zval_struct, ptr %68, i32 0, i32 1
  store i32 4, ptr %69, align 8, !tbaa !13
  call void @llvm.lifetime.end.p0(i64 8, ptr %8) #15
  br label %70

70:                                               ; preds = %59
  br label %71

71:                                               ; preds = %70
  store i32 1, ptr %7, align 4
  br label %87

72:                                               ; No predecessors!
  br label %73

73:                                               ; preds = %72
  br label %86

74:                                               ; preds = %52
  br label %75

75:                                               ; preds = %74
  br label %76

76:                                               ; preds = %75
  call void @llvm.lifetime.start.p0(i64 8, ptr %9) #15
  %77 = load ptr, ptr %4, align 8, !tbaa !9
  store ptr %77, ptr %9, align 8, !tbaa !9
  %78 = load ptr, ptr %9, align 8, !tbaa !9
  %79 = getelementptr inbounds nuw %struct._zval_struct, ptr %78, i32 0, i32 0
  store i64 0, ptr %79, align 8, !tbaa !13
  %80 = load ptr, ptr %9, align 8, !tbaa !9
  %81 = getelementptr inbounds nuw %struct._zval_struct, ptr %80, i32 0, i32 1
  store i32 4, ptr %81, align 8, !tbaa !13
  call void @llvm.lifetime.end.p0(i64 8, ptr %9) #15
  br label %82

82:                                               ; preds = %76
  br label %83

83:                                               ; preds = %82
  store i32 1, ptr %7, align 4
  br label %87

84:                                               ; No predecessors!
  br label %85

85:                                               ; preds = %84
  br label %86

86:                                               ; preds = %85, %73
  store i32 0, ptr %7, align 4
  br label %87

87:                                               ; preds = %86, %83, %71, %47, %33
  call void @llvm.lifetime.end.p0(i64 8, ptr %6) #15
  call void @llvm.lifetime.end.p0(i64 8, ptr %5) #15
  %88 = load i32, ptr %7, align 4
  switch i32 %88, label %90 [
    i32 0, label %89
    i32 1, label %89
  ]

89:                                               ; preds = %87, %87
  ret void

90:                                               ; preds = %87
  unreachable
}