; Function Attrs: nounwind uwtable
define hidden void @zim_SQLite3_lastErrorCode(ptr noundef readonly captures(none) %0, ptr noundef writeonly captures(none) %1) #0 {
  %3 = getelementptr inbounds nuw i8, ptr %0, i64 32
  %4 = load ptr, ptr %3, align 8, !tbaa !8
  %5 = getelementptr inbounds i8, ptr %4, i64 -128
  %6 = getelementptr inbounds nuw i8, ptr %0, i64 44
  %7 = load i32, ptr %6, align 4, !tbaa !8
  %.not = icmp eq i32 %7, 0
  br i1 %.not, label %.critedge, label %8, !prof !75

8:                                                ; preds = %2
  tail call void @zend_wrong_parameters_none_error() #17
  %9 = load ptr, ptr getelementptr inbounds nuw (i8, ptr @executor_globals, i64 960), align 8, !tbaa !9
  %10 = icmp ne ptr %9, null
  tail call void @llvm.assume(i1 %10)
  br label %25

.critedge:                                        ; preds = %2
  %11 = getelementptr inbounds i8, ptr %4, i64 -120
  %12 = load ptr, ptr %11, align 8, !tbaa !59
  %.not15 = icmp eq ptr %12, null
  br i1 %.not15, label %13, label %16

13:                                               ; preds = %.critedge
  tail call void (ptr, ptr, ...) @zend_throw_error(ptr noundef null, ptr noundef nonnull @.str.8) #17
  %14 = load ptr, ptr getelementptr inbounds nuw (i8, ptr @executor_globals, i64 960), align 8, !tbaa !9
  %15 = icmp ne ptr %14, null
  tail call void @llvm.assume(i1 %15)
  br label %25

16:                                               ; preds = %.critedge
  %17 = load i8, ptr %5, align 8, !tbaa !44, !range !55, !noundef !56
  %18 = trunc nuw i8 %17 to i1
  br i1 %18, label %19, label %23

19:                                               ; preds = %16
  %20 = tail call i32 @sqlite3_errcode(ptr noundef nonnull %12) #17
  %21 = sext i32 %20 to i64
  store i64 %21, ptr %1, align 8, !tbaa !8
  %22 = getelementptr inbounds nuw i8, ptr %1, i64 8
  store i32 4, ptr %22, align 8, !tbaa !8
  br label %25

23:                                               ; preds = %16
  store i64 0, ptr %1, align 8, !tbaa !8
  %24 = getelementptr inbounds nuw i8, ptr %1, i64 8
  store i32 4, ptr %24, align 8, !tbaa !8
  br label %25

25:                                               ; preds = %23, %19, %13, %8
  ret void
}